     1 00000000                                 ; xOS
     2 00000000                                 ; TAB=4
     3  = 0000000A                              		CYLS	EQU		10
     4 00000000                                 
     5                                          		ORG		0x7c00			; 程序转载地址
     6 00007C00                                 
     7 00007C00                                 ; FAT12格式软盘
     8 00007C00                                 
     9 00007C00 EB 4E                           		JMP		entry
    10 00007C02 90                              		DB		0x90
    11 00007C03 78 4F 53 27 53 49 50 4C         		DB		"xOS'SIPL"		; 盘符8字节
    12 00007C0B 0200                            		DW		512				; 扇区大小，512字节
    13 00007C0D 01                              		DB		1				; 簇大小，1个扇区
    14 00007C0E 0001                            		DW		1				; FAT起始位置（扇区）
    15 00007C10 02                              		DB		2				; FAT的个数
    16 00007C11 00E0                            		DW		224				; 根目录大小 一般224
    17 00007C13 0B40                            		DW		2880			; 磁盘大小 2880个扇区
    18 00007C15 F0                              		DB		0xf0			; 磁盘种类
    19 00007C16 0009                            		DW		9				; FAT长度 必须为9
    20 00007C18 0012                            		DW		18				; 1个磁道有多少个扇区（18）
    21 00007C1A 0002                            		DW		2				; 磁头数 2
    22 00007C1C 00000000                        		DD		0				; 不使用分区 0
    23 00007C20 00000B40                        		DD		2880			; 再写一遍磁盘大小
    24 00007C24 00 00 29                        		DB		0,0,0x29		; 意义不明，固定
    25 00007C27 FFFFFFFF                        		DD		0xffffffff		; 卷标号码
    26 00007C2B 78 4F 53 20 20 20 20 20 20 20   		DB		"xOS        "	; 磁盘名称（11）
       00007C35 20 
    27 00007C36 46 41 54 31 32 20 20 20         		DB		"FAT12   "		; 磁盘格式名称（8）
    28 00007C3E 00 00 00 00 00 00 00 00 00 00   		RESB	18				; 空出18个字节
       00007C48 00 00 00 00 00 00 00 00 
    29 00007C50                                 
    30 00007C50                                 ; 核心
    31 00007C50                                 
    32 00007C50                                 entry:
    33 00007C50 B8 0000                         		MOV		AX,0			; 初始化寄存器
    34 00007C53 8E D0                           		MOV		SS,AX
    35 00007C55 BC 7C00                         		MOV		SP,0x7c00
    36 00007C58 8E D8                           		MOV		DS,AX
    37 00007C5A                                 
    38 00007C5A                                 ; 读盘
    39 00007C5A                                 
    40 00007C5A B8 0820                         		MOV 	AX,0x0820		; 0x8000 ~ 0x81FF是留给启动区的
    41 00007C5D 8E C0                           		MOV		ES,AX
    42 00007C5F B5 00                           		MOV		CH,0			; 柱面0
    43 00007C61 B1 02                           		MOV		CL,2			; 扇区2
    44 00007C63 B6 00                           		MOV		DH,0			; 磁头0
    45 00007C65                                 readloop:
    46 00007C65 BE 0000                         		MOV		SI,0			; 记录失败次数
    47 00007C68                                 retry:
    48 00007C68 B4 02                           		MOV		AH,0x02			; 读盘
    49 00007C6A B0 01                           		MOV		AL,1			; 读取1个扇区
    50 00007C6C BB 0000                         		MOV		BX,0			; 
    51 00007C6F B2 00                           		MOV		DL,0x00			; A驱动器
    52 00007C71 CD 13                           		INT		0x13			; 调用磁盘BIOS
    53 00007C73 73 0D                           		JNC		next
    54 00007C75                                 		; 出错管理
    55 00007C75 83 FE 04                        		CMP		SI, 4			
    56 00007C78 73 2E                           		JAE		ERROR
    57 00007C7A                                 		; Reset
    58 00007C7A B4 00                           		MOV		AH,0x00			; Reset指令
    59 00007C7C B2 00                           		MOV		DL,0x00			; A驱动器
    60 00007C7E CD 13                           		INT		0x13			; 调用磁盘BIOS
    61 00007C80 EB E6                           		JMP		retry
    62 00007C82                                 next:
    63 00007C82 8C C0                           		MOV		AX,ES
    64 00007C84 05 0020                         		ADD		AX,0x0020
    65 00007C87 8E C0                           		MOV		ES,AX
    66 00007C89 80 C1 01                        		ADD		CL,1	
    67 00007C8C 80 F9 12                        		CMP		CL,18
    68 00007C8F 76 D4                           		JBE		readloop	; 小于等于18就循环readloop
    69 00007C91 B1 01                           		MOV		CL,1
    70 00007C93 80 C6 01                        		ADD		DH,1
    71 00007C96 80 FE 02                        		CMP		DH,2
    72 00007C99 72 CA                           		JB		readloop	; 如果读头小于2就……
    73 00007C9B B6 00                           		MOV		DH,0
    74 00007C9D 80 C5 01                        		ADD		CH,1
    75 00007CA0 80 FD 0A                        		CMP		CH,CYLS
    76 00007CA3 72 C0                           		JB		readloop	; 如果柱面小于柱面常量就……
    77 00007CA5                                 
    78 00007CA5                                 
    79 00007CA5                                 
    80 00007CA5                                 fin:
    81 00007CA5 F4                              		HLT						; 让CPU停止；等待指令
    82 00007CA6 EB FD                           		JMP		fin				; 无限循环
    83 00007CA8                                 
    84 00007CA8                                 ERROR:
    85 00007CA8 BE 7CC0                         		MOV		SI,error_msg
    86 00007CAB B9 0010                         		MOV		CX,16
    87 00007CAE                                 
    88 00007CAE                                 putloop:
    89 00007CAE 8A 04                           		MOV		AL,[SI]
    90 00007CB0 83 C6 01                        		ADD		SI,1			; 给SI+1
    91 00007CB3 3C 00                           		CMP		AL,0
    92 00007CB5 74 EE                           		JE		fin
    93 00007CB7 B4 0E                           		MOV		AH,0x0e			; 显示一个文字
    94 00007CB9 89 CB                           		MOV		BX,CX			; 指定字符颜色
    95 00007CBB 41                              		INC     CX
    96 00007CBC CD 10                           		INT		0x10			; 调用显卡BIOS
    97 00007CBE EB EE                           		JMP		putloop
    98 00007CC0                                 
    99 00007CC0                                 
   100 00007CC0                                 error_msg:
   101 00007CC0 0A 0A                           		DB		0x0a, 0x0a		; 换行两次
   102 00007CC2 78 4F 53 3A 20 72 65 61 64 20   		DB		"xOS: read failed."
       00007CCC 66 61 69 6C 65 64 2E 
   103 00007CD3 0A                              		DB		0x0a			; 换行
   104 00007CD4 00                              		DB		0
   105 00007CD5                                 
   106 00007CD5                                 welcome_msg:
   107 00007CD5 0A 0A                           		DB		0x0a, 0x0a		; 换行两次
   108 00007CD7 78 4F 53 3A 20 68 65 6C 6C 6F   		DB		"xOS: hello."
       00007CE1 2E 
   109 00007CE2 0A                              		DB		0x0a			; 换行
   110 00007CE3 00                              		DB		0
   111 00007CE4                                 
   112 00007CE4 00 00 00 00 00 00 00 00 00 00   		RESB	0x7dfe-$		; 重复0
       00007CEE 00 00 00 00 00 00 00 00 00 00 
       00007CF8 00 00 00 00 00 00 00 00 00 00 
       00007D02 00 00 00 00 00 00 00 00 00 00 
       00007D0C 00 00 00 00 00 00 00 00 00 00 
       00007D16 00 00 00 00 00 00 00 00 00 00 
       00007D20 00 00 00 00 00 00 00 00 00 00 
       00007D2A 00 00 00 00 00 00 00 00 00 00 
       00007D34 00 00 00 00 00 00 00 00 00 00 
       00007D3E 00 00 00 00 00 00 00 00 00 00 
       00007D48 00 00 00 00 00 00 00 00 00 00 
       00007D52 00 00 00 00 00 00 00 00 00 00 
       00007D5C 00 00 00 00 00 00 00 00 00 00 
       00007D66 00 00 00 00 00 00 00 00 00 00 
       00007D70 00 00 00 00 00 00 00 00 00 00 
       00007D7A 00 00 00 00 00 00 00 00 00 00 
       00007D84 00 00 00 00 00 00 00 00 00 00 
       00007D8E 00 00 00 00 00 00 00 00 00 00 
       00007D98 00 00 00 00 00 00 00 00 00 00 
       00007DA2 00 00 00 00 00 00 00 00 00 00 
       00007DAC 00 00 00 00 00 00 00 00 00 00 
       00007DB6 00 00 00 00 00 00 00 00 00 00 
       00007DC0 00 00 00 00 00 00 00 00 00 00 
       00007DCA 00 00 00 00 00 00 00 00 00 00 
       00007DD4 00 00 00 00 00 00 00 00 00 00 
       00007DDE 00 00 00 00 00 00 00 00 00 00 
       00007DE8 00 00 00 00 00 00 00 00 00 00 
       00007DF2 00 00 00 00 00 00 00 00 00 00 
       00007DFC 00 00 
   113 00007DFE                                 
   114 00007DFE 55 AA                           		DB		0x55, 0xaa
